target datalayout = "e-m:e-p270:32:32-p271:32:32-p272:64:64-i64:64-i128:128-f80:128-n8:16:32:64-S128"
target triple = "x86_64-pc-linux-gnu"

%class.RegMask = type { %union.anon, i32, i32 }
%union.anon = type { [11 x i64] }
%class.MachProjNode = type <{ %class.ProjNode.base, [7 x i8], %class.RegMask, i32, [4 x i8] }>
%class.ProjNode.base = type <{ %class.Node.base, i32, i8 }>
%class.Node.base = type <{ ptr, ptr, ptr, i32, i32, i32, i32, i32, i32, i32 }>
%class.Node_List = type <{ %class.Node_Array, i32, [4 x i8] }>
%class.Node_Array = type { ptr, i32, ptr }
%class.Node = type <{ ptr, ptr, ptr, i32, i32, i32, i32, i32, i32, i32, [4 x i8] }>
%class.ciEnv = type <{ ptr, %class.Arena, ptr, ptr, ptr, ptr, %class.CHeapStringHolder, i8, [3 x i8], i32, i8, [3 x i8], i32, ptr, ptr, ptr, ptr, i32, [4 x i8], i64, i8, i8, i8, i8, i8, i8, i8, i8, ptr, ptr, ptr, ptr, ptr, ptr, ptr, ptr, ptr, [1025 x i8], [7 x i8] }>
%class.Arena = type { i8, i8, i64, ptr, ptr, ptr, ptr }
%class.CHeapStringHolder = type { ptr }
%class.CompilerThread = type { %class.JavaThread, ptr, ptr, ptr, ptr, ptr, ptr, i8, ptr, %class.TimeStamp, ptr }
%class.JavaThread = type { %class.Thread, i8, %class.OopHandle, %class.OopHandle, %class.OopHandle, %class.OopHandle, %class.JavaFrameAnchor, ptr, %struct.JNIEnv_, ptr, ptr, ptr, ptr, ptr, ptr, ptr, ptr, %class.MemRegion, ptr, i8, ptr, ptr, ptr, i32, i32, %"struct.SafepointMechanism::ThreadData", ptr, ptr, i32, i32, i8, i8, i8, i8, i8, i8, i8, i32, i8, i32, i8, i8, i64, %union.anon.17, ptr, ptr, i64, i64, ptr, ptr, %class.StackOverflow, ptr, ptr, ptr, i32, i32, ptr, i32, i32, i32, ptr, ptr, i32, i64, i64, %class.StackWatermarks, %class.HandshakeState, ptr, i32, ptr, i32, i32, ptr, %class.Parker, ptr, ptr, %class.LockStack }
%class.Thread = type { %class.ThreadShadow.base, i64, [43 x i64], ptr, ptr, i32, ptr, i64, i64, %class.ThreadLocalAllocBuffer, i64, %class.ThreadHeapSampler, %class.ThreadStatisticalInfo, %class.JfrThreadLocal, ptr, ptr, ptr, ptr, ptr, ptr, i64, i32, i32, ptr, i32, i32, i32, i32, i8, ptr }
%class.ThreadShadow.base = type <{ ptr, ptr, ptr, i32 }>
%class.ThreadLocalAllocBuffer = type <{ ptr, ptr, ptr, ptr, ptr, i64, i64, i64, i64, i32, i32, i32, i32, i64, %class.AdaptiveWeightedAverage, [4 x i8] }>
%class.AdaptiveWeightedAverage = type { float, i32, i32, i8, float }
%class.ThreadHeapSampler = type { i64 }
%class.ThreadStatisticalInfo = type { i64, i64 }
%class.JfrThreadLocal = type <{ ptr, ptr, ptr, ptr, ptr, ptr, ptr, ptr, ptr, ptr, %class.RefCountHandle, i64, i64, i64, i64, i64, i64, i64, i64, i64, i64, i64, i32, i32, i32, i16, i8, i8, i8, i8, i8, [5 x i8] }>
%class.RefCountHandle = type { ptr }
%class.OopHandle = type { ptr }
%class.JavaFrameAnchor = type { ptr, ptr, ptr }
%struct.JNIEnv_ = type { ptr }
%class.MemRegion = type { ptr, i64 }
%"struct.SafepointMechanism::ThreadData" = type { i64, i64 }
%union.anon.17 = type { ptr }
%class.StackOverflow = type { i32, ptr, ptr, ptr, ptr, ptr, ptr }
%class.StackWatermarks = type { ptr }
%class.HandshakeState = type <{ ptr, %class.FilterQueue, %class.Monitor, ptr, i8, i8, i8, [5 x i8] }>
%class.FilterQueue = type { ptr }
%class.Monitor = type { %class.Mutex }
%class.Mutex = type { ptr, %class.PlatformMonitor, ptr }
%class.PlatformMonitor = type { %class.PlatformMutex, %union.pthread_cond_t }
%class.PlatformMutex = type { %union.pthread_mutex_t }
%union.pthread_mutex_t = type { %struct.__pthread_mutex_s }
%struct.__pthread_mutex_s = type { i32, i32, i32, i32, i32, i16, i16, %struct.__pthread_internal_list }
%struct.__pthread_internal_list = type { ptr, ptr }
%union.pthread_cond_t = type { %struct.__pthread_cond_s }
%struct.__pthread_cond_s = type { %union.__atomic_wide_counter, %union.__atomic_wide_counter, [2 x i32], [2 x i32], i32, i32, [2 x i32] }
%union.__atomic_wide_counter = type { i64 }
%class.Parker = type { %class.PlatformParker }
%class.PlatformParker = type { i32, i32, [1 x %union.pthread_mutex_t], [2 x %union.pthread_cond_t] }
%class.LockStack = type { i32, i64, [8 x ptr] }
%class.TimeStamp = type { i64 }
%class.Compile = type <{ %class.Phase, i32, %class.Options, [4 x i8], ptr, i32, [4 x i8], ptr, ptr, ptr, ptr, ptr, i32, i32, i32, [4 x i8], i64, i8, i8, [2 x i8], i32, i8, i8, i8, i8, i8, i8, i8, i8, i8, [3 x i8], i32, i8, [3 x i8], [30 x i32], i8, [3 x i8], i32, i8, i8, i8, i8, i8, i8, i8, i8, i8, i8, i8, i8, i8, [3 x i8], i32, i32, [4 x i8], %class.Arena, ptr, ptr, ptr, ptr, %class.CHeapStringHolder, ptr, %class.GrowableArray, %class.GrowableArray.1, %class.GrowableArray.4, %class.GrowableArray.1, %class.GrowableArray.1, %class.GrowableArray.1, %class.GrowableArray.7, %class.GrowableArray.10, ptr, i32, i32, %class.VectorSet, %class.Arena, %class.Arena, ptr, ptr, ptr, ptr, ptr, ptr, ptr, ptr, ptr, %class.Arena, ptr, ptr, %class.CloneMap, i64, ptr, ptr, ptr, i32, i32, [64 x %"struct.Compile::AliasCacheEntry"], ptr, ptr, ptr, ptr, %class.GrowableArray, %class.GrowableArray, %class.GrowableArray, %class.GrowableArray, i32, i32, i8, [7 x i8], ptr, ptr, i32, [4 x i8], ptr, ptr, ptr, i32, i32, ptr, ptr, %class.RegMask, ptr, ptr, i32, [4 x i8], ptr, %class.TimeInstant, i32, [4 x i8] }>
%class.Phase = type { i32, ptr }
%class.Options = type { i8, i8, i8, i8, i8, i8, i8, i8 }
%class.GrowableArray.4 = type { %class.GrowableArrayWithAllocator.5, %class.GrowableArrayMetadata }
%class.GrowableArrayWithAllocator.5 = type { %class.GrowableArrayView.6 }
%class.GrowableArrayView.6 = type { %class.GrowableArrayBase, ptr }
%class.GrowableArrayBase = type { i32, i32 }
%class.GrowableArrayMetadata = type { i64 }
%class.GrowableArray.1 = type { %class.GrowableArrayWithAllocator.2, %class.GrowableArrayMetadata }
%class.GrowableArrayWithAllocator.2 = type { %class.GrowableArrayView.3 }
%class.GrowableArrayView.3 = type { %class.GrowableArrayBase, ptr }
%class.GrowableArray.7 = type { %class.GrowableArrayWithAllocator.8, %class.GrowableArrayMetadata }
%class.GrowableArrayWithAllocator.8 = type { %class.GrowableArrayView.9 }
%class.GrowableArrayView.9 = type { %class.GrowableArrayBase, ptr }
%class.GrowableArray.10 = type { %class.GrowableArrayWithAllocator.11, %class.GrowableArrayMetadata }
%class.GrowableArrayWithAllocator.11 = type { %class.GrowableArrayView.12 }
%class.GrowableArrayView.12 = type { %class.GrowableArrayBase, ptr }
%class.VectorSet = type { i32, ptr, i32, ptr }
%class.CloneMap = type <{ i8, [7 x i8], ptr, i32, [4 x i8] }>
%"struct.Compile::AliasCacheEntry" = type { ptr, i32 }
%class.GrowableArray = type { %class.GrowableArrayWithAllocator, %class.GrowableArrayMetadata }
%class.GrowableArrayWithAllocator = type { %class.GrowableArrayView }
%class.GrowableArrayView = type { %class.GrowableArrayBase, ptr }
%class.TimeInstant = type { %class.CompositeCounterRepresentation }
%class.CompositeCounterRepresentation = type { %class.Representation }
%class.Representation = type { %class.PairRep }
%class.PairRep = type { i64, i64 }
%class.ProjNode = type <{ %class.Node.base, i32, i8, [7 x i8] }>

@_INT_FLAGS_mask = hidden global %class.RegMask zeroinitializer, align 8
@_ZN6Thread12_thr_currentE = external thread_local global ptr, align 8
@_ZTV12MachProjNode = external unnamed_addr constant { [26 x ptr] }, align 8
@_ZTV8ProjNode = external unnamed_addr constant { [26 x ptr] }, align 8

; Function Attrs: mustprogress nounwind uwtable
define linkonce_odr hidden noundef ptr @_ZN6Thread15current_or_nullEv() #1 comdat align 2 {
  %1 = call align 8 ptr @llvm.threadlocal.address.p0(ptr align 8 @_ZN6Thread12_thr_currentE)
  %2 = load ptr, ptr %1, align 8
  ret ptr %2
}

; Function Attrs: mustprogress nounwind uwtable
define linkonce_odr hidden noundef ptr @_ZN10JavaThread4castEP6Thread(ptr noundef %0) #1 comdat align 2 {
  %2 = alloca ptr, align 8
  store ptr %0, ptr %2, align 8
  %3 = load ptr, ptr %2, align 8
  ret ptr %3
}

; Function Attrs: mustprogress nounwind uwtable
define linkonce_odr hidden noundef ptr @_ZN6Thread7currentEv() #1 comdat align 2 {
  %1 = alloca ptr, align 8
  %2 = call noundef ptr @_ZN6Thread15current_or_nullEv()
  store ptr %2, ptr %1, align 8
  %3 = load ptr, ptr %1, align 8
  ret ptr %3
}

; Function Attrs: mustprogress nounwind uwtable
define linkonce_odr hidden noundef i64 @_Z13pointer_deltaPVKvS0_m(ptr noundef %0, ptr noundef %1, i64 noundef %2) #1 comdat {
  %4 = alloca ptr, align 8
  %5 = alloca ptr, align 8
  %6 = alloca i64, align 8
  store ptr %0, ptr %4, align 8
  store ptr %1, ptr %5, align 8
  store i64 %2, ptr %6, align 8
  %7 = load ptr, ptr %4, align 8
  %8 = ptrtoint ptr %7 to i64
  %9 = load ptr, ptr %5, align 8
  %10 = ptrtoint ptr %9 to i64
  %11 = sub i64 %8, %10
  %12 = load i64, ptr %6, align 8
  %13 = udiv i64 %11, %12
  ret i64 %13
}

; Function Attrs: mustprogress nounwind uwtable
define linkonce_odr hidden noundef ptr @_ZN14CompilerThread4castEP6Thread(ptr noundef %0) #1 comdat align 2 {
  %2 = alloca ptr, align 8
  store ptr %0, ptr %2, align 8
  %3 = load ptr, ptr %2, align 8
  ret ptr %3
}

; Function Attrs: mustprogress nounwind uwtable
define linkonce_odr hidden noundef ptr @_ZN10JavaThread7currentEv() #1 comdat align 2 {
  %1 = call noundef ptr @_ZN6Thread7currentEv()
  %2 = call noundef ptr @_ZN10JavaThread4castEP6Thread(ptr noundef %1)
  ret ptr %2
}

; Function Attrs: mustprogress nounwind uwtable
define linkonce_odr hidden void @_ZN4Node10init_flagsEj(ptr noundef nonnull align 8 dereferenceable(52) %0, i32 noundef %1) #1 comdat align 2 {
  %3 = alloca ptr, align 8
  %4 = alloca i32, align 4
  store ptr %0, ptr %3, align 8
  store i32 %1, ptr %4, align 4
  %5 = load ptr, ptr %3, align 8
  %6 = load i32, ptr %4, align 4
  %7 = getelementptr inbounds %class.Node, ptr %5, i32 0, i32 9
  %8 = load i32, ptr %7, align 8
  %9 = or i32 %8, %6
  store i32 %9, ptr %7, align 8
  ret void
}

; Function Attrs: mustprogress nounwind uwtable
define linkonce_odr hidden noundef zeroext i1 @_ZNK4Node8is_StartEv(ptr noundef nonnull align 8 dereferenceable(52) %0) #1 comdat align 2 {
  %2 = alloca ptr, align 8
  store ptr %0, ptr %2, align 8
  %3 = load ptr, ptr %2, align 8
  %4 = getelementptr inbounds %class.Node, ptr %3, i32 0, i32 8
  %5 = load i32, ptr %4, align 4
  %6 = and i32 %5, 15
  %7 = icmp eq i32 %6, 9
  ret i1 %7
}

; Function Attrs: mustprogress nounwind uwtable
define linkonce_odr hidden noundef ptr @_ZN5Arena16internal_amallocEmN17AllocFailStrategy13AllocFailEnumE(ptr noundef nonnull align 8 dereferenceable(48) %0, i64 noundef %1, i32 noundef %2) #1 comdat align 2 {
  %4 = alloca ptr, align 8
  %5 = alloca ptr, align 8
  %6 = alloca i64, align 8
  %7 = alloca i32, align 4
  %8 = alloca ptr, align 8
  store ptr %0, ptr %5, align 8
  store i64 %1, ptr %6, align 8
  store i32 %2, ptr %7, align 4
  %9 = load ptr, ptr %5, align 8
  %10 = getelementptr inbounds %class.Arena, ptr %9, i32 0, i32 6
  %11 = load ptr, ptr %10, align 8
  %12 = getelementptr inbounds %class.Arena, ptr %9, i32 0, i32 5
  %13 = load ptr, ptr %12, align 8
  %14 = call noundef i64 @_Z13pointer_deltaPVKvS0_m(ptr noundef %11, ptr noundef %13, i64 noundef 1)
  %15 = load i64, ptr %6, align 8
  %16 = icmp uge i64 %14, %15
  br i1 %16, label %17, label %25

17:                                               ; preds = %3
  %18 = getelementptr inbounds %class.Arena, ptr %9, i32 0, i32 5
  %19 = load ptr, ptr %18, align 8
  store ptr %19, ptr %8, align 8
  %20 = load i64, ptr %6, align 8
  %21 = getelementptr inbounds %class.Arena, ptr %9, i32 0, i32 5
  %22 = load ptr, ptr %21, align 8
  %23 = getelementptr inbounds i8, ptr %22, i64 %20
  store ptr %23, ptr %21, align 8
  %24 = load ptr, ptr %8, align 8
  store ptr %24, ptr %4, align 8
  br label %29

25:                                               ; preds = %3
  %26 = load i64, ptr %6, align 8
  %27 = load i32, ptr %7, align 4
  %28 = call noundef ptr @_ZN5Arena4growEmN17AllocFailStrategy13AllocFailEnumE(ptr noundef nonnull align 8 dereferenceable(48) %9, i64 noundef %26, i32 noundef %27)
  store ptr %28, ptr %4, align 8
  br label %29

29:                                               ; preds = %25, %17
  %30 = load ptr, ptr %4, align 8
  ret ptr %30
}

; Function Attrs: mustprogress nounwind uwtable
define linkonce_odr hidden noundef ptr @_ZN14CompilerThread3envEv(ptr noundef nonnull align 8 dereferenceable(1880) %0) #1 comdat align 2 {
  %2 = alloca ptr, align 8
  store ptr %0, ptr %2, align 8
  %3 = load ptr, ptr %2, align 8
  %4 = getelementptr inbounds %class.CompilerThread, ptr %3, i32 0, i32 2
  %5 = load ptr, ptr %4, align 8
  ret ptr %5
}

; Function Attrs: mustprogress nounwind uwtable
define linkonce_odr hidden noundef ptr @_ZN14CompilerThread7currentEv() #1 comdat align 2 {
  %1 = call noundef ptr @_ZN10JavaThread7currentEv()
  %2 = call noundef ptr @_ZN14CompilerThread4castEP6Thread(ptr noundef %1)
  ret ptr %2
}

; Function Attrs: mustprogress nounwind uwtable
define linkonce_odr hidden void @_ZN10Node_Array3mapEjP4Node(ptr noundef nonnull align 8 dereferenceable(24) %0, i32 noundef %1, ptr noundef %2) #1 comdat align 2 {
  %4 = alloca ptr, align 8
  %5 = alloca i32, align 4
  %6 = alloca ptr, align 8
  store ptr %0, ptr %4, align 8
  store i32 %1, ptr %5, align 4
  store ptr %2, ptr %6, align 8
  %7 = load ptr, ptr %4, align 8
  %8 = load i32, ptr %5, align 4
  %9 = getelementptr inbounds %class.Node_Array, ptr %7, i32 0, i32 1
  %10 = load i32, ptr %9, align 8
  %11 = icmp uge i32 %8, %10
  br i1 %11, label %12, label %14

12:                                               ; preds = %3
  %13 = load i32, ptr %5, align 4
  call void @_ZN10Node_Array4growEj(ptr noundef nonnull align 8 dereferenceable(24) %7, i32 noundef %13)
  br label %14

14:                                               ; preds = %12, %3
  %15 = load ptr, ptr %6, align 8
  %16 = getelementptr inbounds %class.Node_Array, ptr %7, i32 0, i32 2
  %17 = load ptr, ptr %16, align 8
  %18 = load i32, ptr %5, align 4
  %19 = zext i32 %18 to i64
  %20 = getelementptr inbounds ptr, ptr %17, i64 %19
  store ptr %15, ptr %20, align 8
  ret void
}

; Function Attrs: mustprogress nounwind uwtable
define linkonce_odr hidden void @_ZN4Node13init_class_idEj(ptr noundef nonnull align 8 dereferenceable(52) %0, i32 noundef %1) #1 comdat align 2 {
  %3 = alloca ptr, align 8
  %4 = alloca i32, align 4
  store ptr %0, ptr %3, align 8
  store i32 %1, ptr %4, align 4
  %5 = load ptr, ptr %3, align 8
  %6 = load i32, ptr %4, align 4
  %7 = getelementptr inbounds %class.Node, ptr %5, i32 0, i32 8
  store i32 %6, ptr %7, align 4
  ret void
}

; Function Attrs: mustprogress nounwind uwtable
define linkonce_odr hidden void @_ZN8ProjNodeC2EP4Nodejb(ptr noundef nonnull align 8 dereferenceable(57) %0, ptr noundef %1, i32 noundef %2, i1 noundef zeroext %3) unnamed_addr #1 comdat align 2 {
  %5 = alloca ptr, align 8
  %6 = alloca ptr, align 8
  %7 = alloca i32, align 4
  %8 = alloca i8, align 1
  store ptr %0, ptr %5, align 8
  store ptr %1, ptr %6, align 8
  store i32 %2, ptr %7, align 4
  %9 = zext i1 %3 to i8
  store i8 %9, ptr %8, align 1
  %10 = load ptr, ptr %5, align 8
  %11 = load ptr, ptr %6, align 8
  call void @_ZN4NodeC2EPS_(ptr noundef nonnull align 8 dereferenceable(52) %10, ptr noundef %11)
  store ptr getelementptr inbounds inrange(-16, 192) ({ [26 x ptr] }, ptr @_ZTV8ProjNode, i32 0, i32 0, i32 2), ptr %10, align 8
  %12 = getelementptr inbounds %class.ProjNode, ptr %10, i32 0, i32 1
  %13 = load i32, ptr %7, align 4
  store i32 %13, ptr %12, align 4
  %14 = getelementptr inbounds %class.ProjNode, ptr %10, i32 0, i32 2
  %15 = load i8, ptr %8, align 1
  %16 = trunc i8 %15 to i1
  %17 = zext i1 %16 to i8
  store i8 %17, ptr %14, align 8
  call void @_ZN4Node13init_class_idEj(ptr noundef nonnull align 8 dereferenceable(52) %10, i32 noundef 8)
  %18 = load i32, ptr %7, align 4
  %19 = icmp ne i32 %18, 2
  br i1 %19, label %23, label %20

20:                                               ; preds = %4
  %21 = load ptr, ptr %6, align 8
  %22 = call noundef zeroext i1 @_ZNK4Node8is_StartEv(ptr noundef nonnull align 8 dereferenceable(52) %21)
  br i1 %22, label %23, label %24

23:                                               ; preds = %20, %4
  call void @_ZN4Node10init_flagsEj(ptr noundef nonnull align 8 dereferenceable(52) %10, i32 noundef 64)
  br label %24

24:                                               ; preds = %23, %20
  ret void
}

; Function Attrs: mustprogress nounwind uwtable
define linkonce_odr hidden noundef ptr @_ZN5Arena12AmallocWordsEmN17AllocFailStrategy13AllocFailEnumE(ptr noundef nonnull align 8 dereferenceable(48) %0, i64 noundef %1, i32 noundef %2) #1 comdat align 2 {
  %4 = alloca ptr, align 8
  %5 = alloca i64, align 8
  %6 = alloca i32, align 4
  store ptr %0, ptr %4, align 8
  store i64 %1, ptr %5, align 8
  store i32 %2, ptr %6, align 4
  %7 = load ptr, ptr %4, align 8
  %8 = load i64, ptr %5, align 8
  %9 = load i32, ptr %6, align 4
  %10 = call noundef ptr @_ZN5Arena16internal_amallocEmN17AllocFailStrategy13AllocFailEnumE(ptr noundef nonnull align 8 dereferenceable(48) %7, i64 noundef %8, i32 noundef %9)
  ret ptr %10
}

; Function Attrs: mustprogress nounwind uwtable
define linkonce_odr hidden noundef ptr @_ZN7Compile10node_arenaEv(ptr noundef nonnull align 8 dereferenceable(2316) %0) #1 comdat align 2 {
  %2 = alloca ptr, align 8
  store ptr %0, ptr %2, align 8
  %3 = load ptr, ptr %2, align 8
  %4 = getelementptr inbounds %class.Compile, ptr %3, i32 0, i32 76
  %5 = load ptr, ptr %4, align 8
  ret ptr %5
}

; Function Attrs: mustprogress nounwind uwtable
define linkonce_odr hidden noundef ptr @_ZNK5ciEnv13compiler_dataEv(ptr noundef nonnull align 8 dereferenceable(1265) %0) #1 comdat align 2 {
  %2 = alloca ptr, align 8
  store ptr %0, ptr %2, align 8
  %3 = load ptr, ptr %2, align 8
  %4 = getelementptr inbounds %class.ciEnv, ptr %3, i32 0, i32 15
  %5 = load ptr, ptr %4, align 8
  ret ptr %5
}

; Function Attrs: mustprogress nounwind uwtable
define linkonce_odr hidden noundef ptr @_ZN5ciEnv7currentEv() #1 comdat align 2 {
  %1 = call noundef ptr @_ZN14CompilerThread7currentEv()
  %2 = call noundef ptr @_ZN14CompilerThread3envEv(ptr noundef nonnull align 8 dereferenceable(1880) %1)
  ret ptr %2
}

; Function Attrs: mustprogress nounwind uwtable
define linkonce_odr hidden void @_ZN9Node_List4pushEP4Node(ptr noundef nonnull align 8 dereferenceable(28) %0, ptr noundef %1) #1 comdat align 2 {
  %3 = alloca ptr, align 8
  %4 = alloca ptr, align 8
  store ptr %0, ptr %3, align 8
  store ptr %1, ptr %4, align 8
  %5 = load ptr, ptr %3, align 8
  %6 = getelementptr inbounds %class.Node_List, ptr %5, i32 0, i32 1
  %7 = load i32, ptr %6, align 8
  %8 = add i32 %7, 1
  store i32 %8, ptr %6, align 8
  %9 = load ptr, ptr %4, align 8
  call void @_ZN10Node_Array3mapEjP4Node(ptr noundef nonnull align 8 dereferenceable(24) %5, i32 noundef %7, ptr noundef %9)
  ret void
}

; Function Attrs: mustprogress nounwind uwtable
define linkonce_odr hidden void @_ZN12MachProjNodeC2EP4NodejRK7RegMaskj(ptr noundef nonnull align 8 dereferenceable(164) %0, ptr noundef %1, i32 noundef %2, ptr noundef nonnull align 8 dereferenceable(96) %3, i32 noundef %4) unnamed_addr #1 comdat align 2 {
  %6 = alloca ptr, align 8
  %7 = alloca ptr, align 8
  %8 = alloca i32, align 4
  %9 = alloca ptr, align 8
  %10 = alloca i32, align 4
  store ptr %0, ptr %6, align 8
  store ptr %1, ptr %7, align 8
  store i32 %2, ptr %8, align 4
  store ptr %3, ptr %9, align 8
  store i32 %4, ptr %10, align 4
  %11 = load ptr, ptr %6, align 8
  %12 = load ptr, ptr %7, align 8
  %13 = load i32, ptr %8, align 4
  call void @_ZN8ProjNodeC2EP4Nodejb(ptr noundef nonnull align 8 dereferenceable(57) %11, ptr noundef %12, i32 noundef %13, i1 noundef zeroext false)
  store ptr getelementptr inbounds inrange(-16, 192) ({ [26 x ptr] }, ptr @_ZTV12MachProjNode, i32 0, i32 0, i32 2), ptr %11, align 8
  %14 = getelementptr inbounds %class.MachProjNode, ptr %11, i32 0, i32 2
  %15 = load ptr, ptr %9, align 8
  call void @llvm.memcpy.p0.p0.i64(ptr align 8 %14, ptr align 8 %15, i64 96, i1 false)
  %16 = getelementptr inbounds %class.MachProjNode, ptr %11, i32 0, i32 3
  %17 = load i32, ptr %10, align 4
  store i32 %17, ptr %16, align 8
  call void @_ZN4Node13init_class_idEj(ptr noundef nonnull align 8 dereferenceable(52) %11, i32 noundef 520)
  ret void
}

; Function Attrs: mustprogress nounwind uwtable
define linkonce_odr hidden noundef nonnull align 8 dereferenceable(96) ptr @_Z14INT_FLAGS_maskv() #1 comdat {
  ret ptr @_INT_FLAGS_mask
}

; Function Attrs: mustprogress nounwind uwtable
define linkonce_odr hidden noundef ptr @_ZN4NodenwEm(i64 noundef %0) #1 comdat align 2 {
  %2 = alloca i64, align 8
  %3 = alloca ptr, align 8
  %4 = alloca ptr, align 8
  store i64 %0, ptr %2, align 8
  %5 = call noundef ptr @_ZN7Compile7currentEv()
  store ptr %5, ptr %3, align 8
  %6 = load ptr, ptr %3, align 8
  %7 = call noundef ptr @_ZN7Compile10node_arenaEv(ptr noundef nonnull align 8 dereferenceable(2316) %6)
  %8 = load i64, ptr %2, align 8
  %9 = call noundef ptr @_ZN5Arena12AmallocWordsEmN17AllocFailStrategy13AllocFailEnumE(ptr noundef nonnull align 8 dereferenceable(48) %7, i64 noundef %8, i32 noundef 0)
  store ptr %9, ptr %4, align 8
  %10 = load ptr, ptr %4, align 8
  ret ptr %10
}

; Function Attrs: mustprogress nounwind uwtable
define linkonce_odr hidden noundef ptr @_ZN7Compile7currentEv() #1 comdat align 2 {
  %1 = call noundef ptr @_ZN5ciEnv7currentEv()
  %2 = call noundef ptr @_ZNK5ciEnv13compiler_dataEv(ptr noundef nonnull align 8 dereferenceable(1265) %1)
  ret ptr %2
}

; Function Attrs: mustprogress nounwind uwtable
define hidden noundef ptr @_ZN12cmpF_regNode6ExpandEP5StateR9Node_ListP4Node(ptr noundef nonnull align 8 dereferenceable(96) %0, ptr noundef %1, ptr noundef nonnull align 8 dereferenceable(28) %2, ptr noundef %3) unnamed_addr #1 align 2 {
  %5 = alloca ptr, align 8
  %6 = alloca ptr, align 8
  %7 = alloca ptr, align 8
  %8 = alloca ptr, align 8
  %9 = alloca ptr, align 8
  %10 = alloca ptr, align 8
  store ptr %0, ptr %5, align 8
  store ptr %1, ptr %6, align 8
  store ptr %2, ptr %7, align 8
  store ptr %3, ptr %8, align 8
  %11 = load ptr, ptr %5, align 8
  %12 = call noundef ptr @_ZN7Compile7currentEv()
  store ptr %12, ptr %9, align 8
  %13 = call noundef ptr @_ZN4NodenwEm(i64 noundef 168) #5
  %14 = icmp eq ptr %13, null
  br i1 %14, label %17, label %15

15:                                               ; preds = %4
  %16 = call noundef nonnull align 8 dereferenceable(96) ptr @_Z14INT_FLAGS_maskv()
  call void @_ZN12MachProjNodeC2EP4NodejRK7RegMaskj(ptr noundef nonnull align 8 dereferenceable(164) %13, ptr noundef %11, i32 noundef 1, ptr noundef nonnull align 8 dereferenceable(96) %16, i32 noundef 15)
  br label %17

17:                                               ; preds = %15, %4
  %18 = phi ptr [ %13, %15 ], [ null, %4 ]
  store ptr %18, ptr %10, align 8
  %19 = load ptr, ptr %7, align 8
  %20 = load ptr, ptr %10, align 8
  call void @_ZN9Node_List4pushEP4Node(ptr noundef nonnull align 8 dereferenceable(28) %19, ptr noundef %20)
  ret ptr %11
}